target datalayout = "e-m:e-p270:32:32-p271:32:32-p272:64:64-i64:64-i128:128-f80:128-n8:16:32:64-S128"
target triple = "x86_64-pc-linux-gnu"

%struct.AVFilterContext = type { ptr, ptr, ptr, ptr, ptr, i32, ptr, ptr, i32, ptr, ptr, i32, i32, ptr, ptr, ptr, ptr, i32, ptr, i32, i32 }
%struct.SelectContext = type { ptr, ptr, ptr, [40 x double], i32, i32, [4 x i64], [4 x i64], i32, ptr, double, ptr, double, i32, i32 }

@query_formats.pix_fmts = internal constant [12 x i32] [i32 2, i32 3, i32 26, i32 27, i32 28, i32 8, i32 0, i32 12, i32 4, i32 13, i32 62, i32 -1], align 16

; Function Attrs: nounwind uwtable
define internal i32 @query_formats(ptr noundef %0, ptr noundef %1, ptr noundef %2) #1 {
  %4 = alloca i32, align 4
  %5 = alloca ptr, align 8
  %6 = alloca ptr, align 8
  %7 = alloca ptr, align 8
  %8 = alloca ptr, align 8
  %9 = alloca i32, align 4
  store ptr %0, ptr %5, align 8, !tbaa !4
  store ptr %1, ptr %6, align 8, !tbaa !31
  store ptr %2, ptr %7, align 8, !tbaa !31
  call void @llvm.lifetime.start.p0(i64 8, ptr %8) #12
  %10 = load ptr, ptr %5, align 8, !tbaa !4
  %11 = getelementptr inbounds nuw %struct.AVFilterContext, ptr %10, i32 0, i32 9
  %12 = load ptr, ptr %11, align 8, !tbaa !9
  store ptr %12, ptr %8, align 8, !tbaa !22
  %13 = load ptr, ptr %8, align 8, !tbaa !22
  %14 = getelementptr inbounds nuw %struct.SelectContext, ptr %13, i32 0, i32 8
  %15 = load i32, ptr %14, align 8, !tbaa !25
  %16 = icmp ne i32 %15, 0
  br i1 %16, label %17, label %22

17:                                               ; preds = %3
  %18 = load ptr, ptr %5, align 8, !tbaa !4
  %19 = load ptr, ptr %6, align 8, !tbaa !31
  %20 = load ptr, ptr %7, align 8, !tbaa !31
  %21 = call i32 @ff_set_common_formats_from_list2(ptr noundef %18, ptr noundef %19, ptr noundef %20, ptr noundef @query_formats.pix_fmts)
  store i32 %21, ptr %4, align 4
  store i32 1, ptr %9, align 4
  br label %23

22:                                               ; preds = %3
  store i32 0, ptr %4, align 4
  store i32 1, ptr %9, align 4
  br label %23

23:                                               ; preds = %22, %17
  call void @llvm.lifetime.end.p0(i64 8, ptr %8) #12
  %24 = load i32, ptr %4, align 4
  ret i32 %24
}